target datalayout = "e-m:e-p270:32:32-p271:32:32-p272:64:64-i64:64-i128:128-f80:128-n8:16:32:64-S128"
target triple = "x86_64-pc-linux-gnu"

%struct.FT_Bitmap_ = type { i32, i32, i32, ptr, i16, i8, i8, ptr }

@null_bitmap = internal constant %struct.FT_Bitmap_ zeroinitializer, align 8

; Function Attrs: nounwind uwtable
define void @FT_Bitmap_Init(ptr noundef %0) #0 {
  %2 = alloca ptr, align 8
  store ptr %0, ptr %2, align 8
  %3 = load ptr, ptr %2, align 8
  %4 = icmp ne ptr %3, null
  br i1 %4, label %5, label %7

5:                                                ; preds = %1
  %6 = load ptr, ptr %2, align 8
  call void @llvm.memcpy.p0.p0.i64(ptr align 8 %6, ptr align 8 @null_bitmap, i64 40, i1 false)
  br label %7

7:                                                ; preds = %5, %1
  ret void
}