; Function Attrs: mustprogress nofree norecurse nosync nounwind willreturn memory(argmem: write) uwtable
define void @FT_Bitmap_Init(ptr noundef writeonly %0) local_unnamed_addr #0 {
  %.not = icmp eq ptr %0, null
  br i1 %.not, label %3, label %2

2:                                                ; preds = %1
  tail call void @llvm.memset.p0.i64(ptr noundef nonnull align 8 dereferenceable(40) %0, i8 0, i64 40, i1 false)
  br label %3

3:                                                ; preds = %2, %1
  ret void
}